; Function Attrs: mustprogress nofree norecurse nosync nounwind willreturn memory(read, inaccessiblemem: none) uwtable
define dso_local noundef ptr @_ZN16b3GpuNarrowPhase26getAabbLocalSpaceBufferGpuEv(ptr noundef nonnull readonly align 8 captures(none) dereferenceable(56) %0) local_unnamed_addr #13 align 2 {
  %2 = getelementptr inbounds nuw i8, ptr %0, i64 8
  %3 = load ptr, ptr %2, align 8, !tbaa !7
  %4 = getelementptr inbounds nuw i8, ptr %3, i64 416
  %5 = load ptr, ptr %4, align 8, !tbaa !135
  %6 = getelementptr inbounds nuw i8, ptr %5, i64 24
  %7 = load ptr, ptr %6, align 8, !tbaa !254
  ret ptr %7
}